; Function Attrs: nounwind uwtable
define void @tls1_free(ptr noundef %0) local_unnamed_addr #2 {
  %2 = icmp eq ptr %0, null
  br i1 %2, label %.thread, label %3

3:                                                ; preds = %1
  %4 = load i32, ptr %0, align 8, !tbaa !19
  %5 = icmp eq i32 %4, 0
  br i1 %5, label %.thread10, label %6

6:                                                ; preds = %3
  %7 = and i32 %4, 128
  %.not = icmp eq i32 %7, 0
  br i1 %.not, label %.thread, label %8

8:                                                ; preds = %6
  %9 = tail call ptr @ossl_quic_obj_get0_handshake_layer(ptr noundef nonnull %0) #14
  %10 = icmp eq ptr %9, null
  br i1 %10, label %.thread, label %.thread10

.thread10:                                        ; preds = %3, %8
  %11 = phi ptr [ %9, %8 ], [ %0, %3 ]
  %12 = getelementptr inbounds nuw i8, ptr %11, i64 2760
  %13 = load ptr, ptr %12, align 8, !tbaa !20
  tail call void @CRYPTO_free(ptr noundef %13, ptr noundef nonnull @.str.2, i32 noundef 121) #14
  tail call void @ssl3_free(ptr noundef nonnull %0) #14
  br label %.thread

.thread:                                          ; preds = %6, %1, %8, %.thread10
  ret void
}